target datalayout = "e-m:e-p270:32:32-p271:32:32-p272:64:64-i64:64-i128:128-f80:128-n8:16:32:64-S128"
target triple = "x86_64-pc-linux-gnu"

%struct.PageHeaderData = type { %struct.PageXLogRecPtr, i16, i16, i16, i16, i16, i16, i32, [0 x %struct.ItemIdData] }
%struct.PageXLogRecPtr = type { i32, i32 }
%struct.ItemIdData = type { i32 }

@.str.1 = private unnamed_addr constant [10 x i8] c"bufpage.c\00", align 1
@.str.2 = private unnamed_addr constant [62 x i8] c"corrupted page pointers: lower = %u, upper = %u, special = %u\00", align 1
@.str.8 = private unnamed_addr constant [25 x i8] c"invalid index offnum: %u\00", align 1
@.str.9 = private unnamed_addr constant [47 x i8] c"corrupted line pointer: offset = %u, size = %u\00", align 1
@__func__.PageIndexTupleDeleteNoCompact = private unnamed_addr constant [30 x i8] c"PageIndexTupleDeleteNoCompact\00", align 1

; Function Attrs: inlinehint nounwind uwtable
define internal zeroext i1 @PageIsEmpty(ptr noundef %0) #3 {
  %2 = alloca ptr, align 8
  store ptr %0, ptr %2, align 8
  %3 = load ptr, ptr %2, align 8
  %4 = getelementptr inbounds nuw %struct.PageHeaderData, ptr %3, i32 0, i32 3
  %5 = load i16, ptr %4, align 4
  %6 = zext i16 %5 to i64
  %7 = icmp ule i64 %6, 24
  ret i1 %7
}

; Function Attrs: inlinehint nounwind uwtable
define internal ptr @PageGetItemId(ptr noundef %0, i16 noundef zeroext %1) #3 {
  %3 = alloca ptr, align 8
  %4 = alloca i16, align 2
  store ptr %0, ptr %3, align 8
  store i16 %1, ptr %4, align 2
  %5 = load ptr, ptr %3, align 8
  %6 = getelementptr inbounds nuw %struct.PageHeaderData, ptr %5, i32 0, i32 8
  %7 = load i16, ptr %4, align 2
  %8 = zext i16 %7 to i32
  %9 = sub i32 %8, 1
  %10 = sext i32 %9 to i64
  %11 = getelementptr inbounds [0 x %struct.ItemIdData], ptr %6, i64 0, i64 %10
  ret ptr %11
}

; Function Attrs: inlinehint nounwind uwtable
define internal zeroext i16 @PageGetMaxOffsetNumber(ptr noundef %0) #3 {
  %2 = alloca i16, align 2
  %3 = alloca ptr, align 8
  %4 = alloca ptr, align 8
  %5 = alloca i32, align 4
  store ptr %0, ptr %3, align 8
  call void @llvm.lifetime.start.p0(i64 8, ptr %4) #8
  %6 = load ptr, ptr %3, align 8
  store ptr %6, ptr %4, align 8
  %7 = load ptr, ptr %4, align 8
  %8 = getelementptr inbounds nuw %struct.PageHeaderData, ptr %7, i32 0, i32 3
  %9 = load i16, ptr %8, align 4
  %10 = zext i16 %9 to i64
  %11 = icmp ule i64 %10, 24
  br i1 %11, label %12, label %13

12:                                               ; preds = %1
  store i16 0, ptr %2, align 2
  store i32 1, ptr %5, align 4
  br label %21

13:                                               ; preds = %1
  %14 = load ptr, ptr %4, align 8
  %15 = getelementptr inbounds nuw %struct.PageHeaderData, ptr %14, i32 0, i32 3
  %16 = load i16, ptr %15, align 4
  %17 = zext i16 %16 to i64
  %18 = sub i64 %17, 24
  %19 = udiv i64 %18, 4
  %20 = trunc i64 %19 to i16
  store i16 %20, ptr %2, align 2
  store i32 1, ptr %5, align 4
  br label %21

21:                                               ; preds = %13, %12
  call void @llvm.lifetime.end.p0(i64 8, ptr %4) #8
  %22 = load i16, ptr %2, align 2
  ret i16 %22
}

; Function Attrs: nounwind uwtable
define dso_local void @PageIndexTupleDeleteNoCompact(ptr noundef %0, i16 noundef zeroext %1) #0 {
  %3 = alloca ptr, align 8
  %4 = alloca i16, align 2
  %5 = alloca ptr, align 8
  %6 = alloca ptr, align 8
  %7 = alloca ptr, align 8
  %8 = alloca i64, align 8
  %9 = alloca i32, align 4
  %10 = alloca i32, align 4
  %11 = alloca i32, align 4
  %12 = alloca ptr, align 8
  store ptr %0, ptr %3, align 8
  store i16 %1, ptr %4, align 2
  call void @llvm.lifetime.start.p0(i64 8, ptr %5) #8
  %13 = load ptr, ptr %3, align 8
  store ptr %13, ptr %5, align 8
  call void @llvm.lifetime.start.p0(i64 8, ptr %6) #8
  call void @llvm.lifetime.start.p0(i64 8, ptr %7) #8
  call void @llvm.lifetime.start.p0(i64 8, ptr %8) #8
  call void @llvm.lifetime.start.p0(i64 4, ptr %9) #8
  call void @llvm.lifetime.start.p0(i64 4, ptr %10) #8
  %14 = load ptr, ptr %5, align 8
  %15 = getelementptr inbounds nuw %struct.PageHeaderData, ptr %14, i32 0, i32 3
  %16 = load i16, ptr %15, align 4
  %17 = zext i16 %16 to i64
  %18 = icmp ult i64 %17, 24
  br i1 %18, label %57, label %19

19:                                               ; preds = %2
  %20 = load ptr, ptr %5, align 8
  %21 = getelementptr inbounds nuw %struct.PageHeaderData, ptr %20, i32 0, i32 3
  %22 = load i16, ptr %21, align 4
  %23 = zext i16 %22 to i32
  %24 = load ptr, ptr %5, align 8
  %25 = getelementptr inbounds nuw %struct.PageHeaderData, ptr %24, i32 0, i32 4
  %26 = load i16, ptr %25, align 2
  %27 = zext i16 %26 to i32
  %28 = icmp sgt i32 %23, %27
  br i1 %28, label %57, label %29

29:                                               ; preds = %19
  %30 = load ptr, ptr %5, align 8
  %31 = getelementptr inbounds nuw %struct.PageHeaderData, ptr %30, i32 0, i32 4
  %32 = load i16, ptr %31, align 2
  %33 = zext i16 %32 to i32
  %34 = load ptr, ptr %5, align 8
  %35 = getelementptr inbounds nuw %struct.PageHeaderData, ptr %34, i32 0, i32 5
  %36 = load i16, ptr %35, align 4
  %37 = zext i16 %36 to i32
  %38 = icmp sgt i32 %33, %37
  br i1 %38, label %57, label %39

39:                                               ; preds = %29
  %40 = load ptr, ptr %5, align 8
  %41 = getelementptr inbounds nuw %struct.PageHeaderData, ptr %40, i32 0, i32 5
  %42 = load i16, ptr %41, align 4
  %43 = zext i16 %42 to i32
  %44 = icmp sgt i32 %43, 8192
  br i1 %44, label %57, label %45

45:                                               ; preds = %39
  %46 = load ptr, ptr %5, align 8
  %47 = getelementptr inbounds nuw %struct.PageHeaderData, ptr %46, i32 0, i32 5
  %48 = load i16, ptr %47, align 4
  %49 = zext i16 %48 to i64
  %50 = load ptr, ptr %5, align 8
  %51 = getelementptr inbounds nuw %struct.PageHeaderData, ptr %50, i32 0, i32 5
  %52 = load i16, ptr %51, align 4
  %53 = zext i16 %52 to i64
  %54 = add i64 %53, 7
  %55 = and i64 %54, -8
  %56 = icmp ne i64 %49, %55
  br i1 %56, label %57, label %81

57:                                               ; preds = %45, %39, %29, %19, %2
  br label %58

58:                                               ; preds = %57
  br i1 true, label %59, label %61

59:                                               ; preds = %58
  %60 = call zeroext i1 @errstart_cold(i32 noundef 21, ptr noundef null) #9
  br i1 %60, label %63, label %78

61:                                               ; preds = %58
  %62 = call zeroext i1 @errstart(i32 noundef 21, ptr noundef null)
  br i1 %62, label %63, label %78

63:                                               ; preds = %61, %59
  %64 = call i32 @errcode(i32 noundef 16779816)
  %65 = load ptr, ptr %5, align 8
  %66 = getelementptr inbounds nuw %struct.PageHeaderData, ptr %65, i32 0, i32 3
  %67 = load i16, ptr %66, align 4
  %68 = zext i16 %67 to i32
  %69 = load ptr, ptr %5, align 8
  %70 = getelementptr inbounds nuw %struct.PageHeaderData, ptr %69, i32 0, i32 4
  %71 = load i16, ptr %70, align 2
  %72 = zext i16 %71 to i32
  %73 = load ptr, ptr %5, align 8
  %74 = getelementptr inbounds nuw %struct.PageHeaderData, ptr %73, i32 0, i32 5
  %75 = load i16, ptr %74, align 4
  %76 = zext i16 %75 to i32
  %77 = call i32 (ptr, ...) @errmsg(ptr noundef @.str.2, i32 noundef %68, i32 noundef %72, i32 noundef %76)
  call void @errfinish(ptr noundef @.str.1, i32 noundef 1304, ptr noundef @__func__.PageIndexTupleDeleteNoCompact)
  br label %78

78:                                               ; preds = %63, %61, %59
  unreachable

79:                                               ; No predecessors!
  br label %80

80:                                               ; preds = %79
  br label %81

81:                                               ; preds = %80, %45
  %82 = load ptr, ptr %3, align 8
  %83 = call zeroext i16 @PageGetMaxOffsetNumber(ptr noundef %82)
  %84 = zext i16 %83 to i32
  store i32 %84, ptr %10, align 4
  %85 = load i16, ptr %4, align 2
  %86 = zext i16 %85 to i32
  %87 = icmp sle i32 %86, 0
  br i1 %87, label %93, label %88

88:                                               ; preds = %81
  %89 = load i16, ptr %4, align 2
  %90 = zext i16 %89 to i32
  %91 = load i32, ptr %10, align 4
  %92 = icmp sgt i32 %90, %91
  br i1 %92, label %93, label %106

93:                                               ; preds = %88, %81
  br label %94

94:                                               ; preds = %93
  br i1 true, label %95, label %97

95:                                               ; preds = %94
  %96 = call zeroext i1 @errstart_cold(i32 noundef 21, ptr noundef null) #9
  br i1 %96, label %99, label %103

97:                                               ; preds = %94
  %98 = call zeroext i1 @errstart(i32 noundef 21, ptr noundef null)
  br i1 %98, label %99, label %103

99:                                               ; preds = %97, %95
  %100 = load i16, ptr %4, align 2
  %101 = zext i16 %100 to i32
  %102 = call i32 (ptr, ...) @errmsg_internal(ptr noundef @.str.8, i32 noundef %101)
  call void @errfinish(ptr noundef @.str.1, i32 noundef 1308, ptr noundef @__func__.PageIndexTupleDeleteNoCompact)
  br label %103

103:                                              ; preds = %99, %97, %95
  unreachable

104:                                              ; No predecessors!
  br label %105

105:                                              ; preds = %104
  br label %106

106:                                              ; preds = %105, %88
  %107 = load ptr, ptr %3, align 8
  %108 = load i16, ptr %4, align 2
  %109 = call ptr @PageGetItemId(ptr noundef %107, i16 noundef zeroext %108)
  store ptr %109, ptr %7, align 8
  %110 = load ptr, ptr %7, align 8
  %111 = load i32, ptr %110, align 4
  %112 = lshr i32 %111, 17
  %113 = zext i32 %112 to i64
  store i64 %113, ptr %8, align 8
  %114 = load ptr, ptr %7, align 8
  %115 = load i32, ptr %114, align 4
  %116 = and i32 %115, 32767
  store i32 %116, ptr %9, align 4
  %117 = load i32, ptr %9, align 4
  %118 = load ptr, ptr %5, align 8
  %119 = getelementptr inbounds nuw %struct.PageHeaderData, ptr %118, i32 0, i32 4
  %120 = load i16, ptr %119, align 2
  %121 = zext i16 %120 to i32
  %122 = icmp ult i32 %117, %121
  br i1 %122, label %141, label %123

123:                                              ; preds = %106
  %124 = load i32, ptr %9, align 4
  %125 = zext i32 %124 to i64
  %126 = load i64, ptr %8, align 8
  %127 = add i64 %125, %126
  %128 = load ptr, ptr %5, align 8
  %129 = getelementptr inbounds nuw %struct.PageHeaderData, ptr %128, i32 0, i32 5
  %130 = load i16, ptr %129, align 4
  %131 = zext i16 %130 to i64
  %132 = icmp ugt i64 %127, %131
  br i1 %132, label %141, label %133

133:                                              ; preds = %123
  %134 = load i32, ptr %9, align 4
  %135 = zext i32 %134 to i64
  %136 = load i32, ptr %9, align 4
  %137 = zext i32 %136 to i64
  %138 = add i64 %137, 7
  %139 = and i64 %138, -8
  %140 = icmp ne i64 %135, %139
  br i1 %140, label %141, label %156

141:                                              ; preds = %133, %123, %106
  br label %142

142:                                              ; preds = %141
  br i1 true, label %143, label %145

143:                                              ; preds = %142
  %144 = call zeroext i1 @errstart_cold(i32 noundef 21, ptr noundef null) #9
  br i1 %144, label %147, label %153

145:                                              ; preds = %142
  %146 = call zeroext i1 @errstart(i32 noundef 21, ptr noundef null)
  br i1 %146, label %147, label %153

147:                                              ; preds = %145, %143
  %148 = call i32 @errcode(i32 noundef 16779816)
  %149 = load i32, ptr %9, align 4
  %150 = load i64, ptr %8, align 8
  %151 = trunc i64 %150 to i32
  %152 = call i32 (ptr, ...) @errmsg(ptr noundef @.str.9, i32 noundef %149, i32 noundef %151)
  call void @errfinish(ptr noundef @.str.1, i32 noundef 1320, ptr noundef @__func__.PageIndexTupleDeleteNoCompact)
  br label %153

153:                                              ; preds = %147, %145, %143
  unreachable

154:                                              ; No predecessors!
  br label %155

155:                                              ; preds = %154
  br label %156

156:                                              ; preds = %155, %133
  %157 = load i64, ptr %8, align 8
  %158 = add i64 %157, 7
  %159 = and i64 %158, -8
  store i64 %159, ptr %8, align 8
  %160 = load i16, ptr %4, align 2
  %161 = zext i16 %160 to i32
  %162 = load i32, ptr %10, align 4
  %163 = icmp slt i32 %161, %162
  br i1 %163, label %164, label %177

164:                                              ; preds = %156
  %165 = load ptr, ptr %7, align 8
  %166 = load i32, ptr %165, align 4
  %167 = and i32 %166, -98305
  %168 = or i32 %167, 0
  store i32 %168, ptr %165, align 4
  %169 = load ptr, ptr %7, align 8
  %170 = load i32, ptr %169, align 4
  %171 = and i32 %170, -32768
  %172 = or i32 %171, 0
  store i32 %172, ptr %169, align 4
  %173 = load ptr, ptr %7, align 8
  %174 = load i32, ptr %173, align 4
  %175 = and i32 %174, 131071
  %176 = or i32 %175, 0
  store i32 %176, ptr %173, align 4
  br label %186

177:                                              ; preds = %156
  %178 = load ptr, ptr %5, align 8
  %179 = getelementptr inbounds nuw %struct.PageHeaderData, ptr %178, i32 0, i32 3
  %180 = load i16, ptr %179, align 4
  %181 = zext i16 %180 to i64
  %182 = sub i64 %181, 4
  %183 = trunc i64 %182 to i16
  store i16 %183, ptr %179, align 4
  %184 = load i32, ptr %10, align 4
  %185 = add i32 %184, -1
  store i32 %185, ptr %10, align 4
  br label %186

186:                                              ; preds = %177, %164
  %187 = load ptr, ptr %3, align 8
  %188 = load ptr, ptr %5, align 8
  %189 = getelementptr inbounds nuw %struct.PageHeaderData, ptr %188, i32 0, i32 4
  %190 = load i16, ptr %189, align 2
  %191 = zext i16 %190 to i32
  %192 = sext i32 %191 to i64
  %193 = getelementptr inbounds i8, ptr %187, i64 %192
  store ptr %193, ptr %6, align 8
  %194 = load i32, ptr %9, align 4
  %195 = load ptr, ptr %5, align 8
  %196 = getelementptr inbounds nuw %struct.PageHeaderData, ptr %195, i32 0, i32 4
  %197 = load i16, ptr %196, align 2
  %198 = zext i16 %197 to i32
  %199 = icmp ugt i32 %194, %198
  br i1 %199, label %200, label %212

200:                                              ; preds = %186
  %201 = load ptr, ptr %6, align 8
  %202 = load i64, ptr %8, align 8
  %203 = getelementptr inbounds nuw i8, ptr %201, i64 %202
  %204 = load ptr, ptr %6, align 8
  %205 = load i32, ptr %9, align 4
  %206 = load ptr, ptr %5, align 8
  %207 = getelementptr inbounds nuw %struct.PageHeaderData, ptr %206, i32 0, i32 4
  %208 = load i16, ptr %207, align 2
  %209 = zext i16 %208 to i32
  %210 = sub i32 %205, %209
  %211 = zext i32 %210 to i64
  call void @llvm.memmove.p0.p0.i64(ptr align 1 %203, ptr align 1 %204, i64 %211, i1 false)
  br label %212

212:                                              ; preds = %200, %186
  %213 = load i64, ptr %8, align 8
  %214 = load ptr, ptr %5, align 8
  %215 = getelementptr inbounds nuw %struct.PageHeaderData, ptr %214, i32 0, i32 4
  %216 = load i16, ptr %215, align 2
  %217 = zext i16 %216 to i64
  %218 = add i64 %217, %213
  %219 = trunc i64 %218 to i16
  store i16 %219, ptr %215, align 2
  %220 = load ptr, ptr %3, align 8
  %221 = call zeroext i1 @PageIsEmpty(ptr noundef %220)
  br i1 %221, label %259, label %222

222:                                              ; preds = %212
  call void @llvm.lifetime.start.p0(i64 4, ptr %11) #8
  store i32 1, ptr %11, align 4
  br label %223

223:                                              ; preds = %255, %222
  %224 = load i32, ptr %11, align 4
  %225 = load i32, ptr %10, align 4
  %226 = icmp sle i32 %224, %225
  br i1 %226, label %227, label %258

227:                                              ; preds = %223
  call void @llvm.lifetime.start.p0(i64 8, ptr %12) #8
  %228 = load ptr, ptr %3, align 8
  %229 = load i32, ptr %11, align 4
  %230 = trunc i32 %229 to i16
  %231 = call ptr @PageGetItemId(ptr noundef %228, i16 noundef zeroext %230)
  store ptr %231, ptr %12, align 8
  %232 = load ptr, ptr %12, align 8
  %233 = load i32, ptr %232, align 4
  %234 = lshr i32 %233, 17
  %235 = icmp ne i32 %234, 0
  br i1 %235, label %236, label %254

236:                                              ; preds = %227
  %237 = load ptr, ptr %12, align 8
  %238 = load i32, ptr %237, align 4
  %239 = and i32 %238, 32767
  %240 = load i32, ptr %9, align 4
  %241 = icmp ule i32 %239, %240
  br i1 %241, label %242, label %254

242:                                              ; preds = %236
  %243 = load i64, ptr %8, align 8
  %244 = load ptr, ptr %12, align 8
  %245 = load i32, ptr %244, align 4
  %246 = and i32 %245, 32767
  %247 = zext i32 %246 to i64
  %248 = add i64 %247, %243
  %249 = trunc i64 %248 to i32
  %250 = load i32, ptr %244, align 4
  %251 = and i32 %249, 32767
  %252 = and i32 %250, -32768
  %253 = or i32 %252, %251
  store i32 %253, ptr %244, align 4
  br label %254

254:                                              ; preds = %242, %236, %227
  call void @llvm.lifetime.end.p0(i64 8, ptr %12) #8
  br label %255

255:                                              ; preds = %254
  %256 = load i32, ptr %11, align 4
  %257 = add i32 %256, 1
  store i32 %257, ptr %11, align 4
  br label %223, !llvm.loop !28

258:                                              ; preds = %223
  call void @llvm.lifetime.end.p0(i64 4, ptr %11) #8
  br label %259

259:                                              ; preds = %258, %212
  call void @llvm.lifetime.end.p0(i64 4, ptr %10) #8
  call void @llvm.lifetime.end.p0(i64 4, ptr %9) #8
  call void @llvm.lifetime.end.p0(i64 8, ptr %8) #8
  call void @llvm.lifetime.end.p0(i64 8, ptr %7) #8
  call void @llvm.lifetime.end.p0(i64 8, ptr %6) #8
  call void @llvm.lifetime.end.p0(i64 8, ptr %5) #8
  ret void
}