; Function Attrs: nounwind uwtable
define dso_local void @PageIndexTupleDeleteNoCompact(ptr noundef captures(none) %0, i16 noundef zeroext %1) local_unnamed_addr #3 {
  %3 = getelementptr inbounds nuw i8, ptr %0, i64 12
  %4 = load i16, ptr %3, align 4
  %5 = icmp ult i16 %4, 24
  br i1 %5, label %19, label %6

6:                                                ; preds = %2
  %7 = getelementptr inbounds nuw i8, ptr %0, i64 14
  %8 = load i16, ptr %7, align 2
  %9 = icmp ugt i16 %4, %8
  br i1 %9, label %19, label %10

10:                                               ; preds = %6
  %11 = getelementptr inbounds nuw i8, ptr %0, i64 16
  %12 = load i16, ptr %11, align 4
  %13 = icmp ugt i16 %8, %12
  %14 = icmp ugt i16 %12, 8192
  %or.cond = or i1 %13, %14
  br i1 %or.cond, label %19, label %15

15:                                               ; preds = %10
  %16 = zext nneg i16 %12 to i64
  %17 = add nuw nsw i64 %16, 7
  %18 = and i64 %17, 32760
  %.not = icmp eq i64 %18, %16
  br i1 %.not, label %31, label %19

19:                                               ; preds = %15, %10, %6, %2
  %20 = tail call zeroext i1 @errstart_cold(i32 noundef 21, ptr noundef null) #13
  tail call void @llvm.assume(i1 %20)
  %21 = tail call i32 @errcode(i32 noundef 16779816) #12
  %22 = load i16, ptr %3, align 4
  %23 = zext i16 %22 to i32
  %24 = getelementptr inbounds nuw i8, ptr %0, i64 14
  %25 = load i16, ptr %24, align 2
  %26 = zext i16 %25 to i32
  %27 = getelementptr inbounds nuw i8, ptr %0, i64 16
  %28 = load i16, ptr %27, align 4
  %29 = zext i16 %28 to i32
  %30 = tail call i32 (ptr, ...) @errmsg(ptr noundef nonnull @.str.2, i32 noundef %23, i32 noundef %26, i32 noundef %29) #12
  tail call void @errfinish(ptr noundef nonnull @.str.1, i32 noundef 1304, ptr noundef nonnull @__func__.PageIndexTupleDeleteNoCompact) #12
  unreachable

31:                                               ; preds = %15
  %32 = icmp eq i16 %4, 24
  %33 = zext i16 %4 to i32
  %34 = add nuw nsw i32 %33, 262120
  %35 = lshr i32 %34, 2
  %36 = trunc i32 %35 to i16
  %.0.i = select i1 %32, i16 0, i16 %36
  %37 = freeze i16 %.0.i
  %38 = zext nneg i16 %37 to i32
  %39 = add i16 %1, -1
  %or.cond71.not = icmp ult i16 %39, %37
  br i1 %or.cond71.not, label %44, label %40

40:                                               ; preds = %31
  %41 = zext i16 %1 to i32
  %42 = tail call zeroext i1 @errstart_cold(i32 noundef 21, ptr noundef null) #13
  tail call void @llvm.assume(i1 %42)
  %43 = tail call i32 (ptr, ...) @errmsg_internal(ptr noundef nonnull @.str.8, i32 noundef %41) #12
  tail call void @errfinish(ptr noundef nonnull @.str.1, i32 noundef 1308, ptr noundef nonnull @__func__.PageIndexTupleDeleteNoCompact) #12
  unreachable

44:                                               ; preds = %31
  %45 = getelementptr inbounds nuw i8, ptr %0, i64 24
  %46 = zext nneg i16 %1 to i64
  %47 = add nsw i64 %46, -1
  %48 = getelementptr inbounds [0 x %struct.ItemIdData], ptr %45, i64 0, i64 %47
  %49 = load i32, ptr %48, align 4
  %50 = lshr i32 %49, 17
  %51 = zext nneg i32 %50 to i64
  %52 = and i32 %49, 32767
  %53 = zext i16 %8 to i32
  %54 = icmp samesign ult i32 %52, %53
  br i1 %54, label %62, label %55

55:                                               ; preds = %44
  %56 = zext nneg i32 %52 to i64
  %57 = add nuw nsw i64 %56, %51
  %58 = icmp samesign ugt i64 %57, %16
  br i1 %58, label %62, label %59

59:                                               ; preds = %55
  %60 = add nuw nsw i64 %56, 7
  %61 = and i64 %60, 65528
  %.not67 = icmp eq i64 %61, %56
  br i1 %.not67, label %66, label %62

62:                                               ; preds = %59, %55, %44
  %63 = tail call zeroext i1 @errstart_cold(i32 noundef 21, ptr noundef null) #13
  tail call void @llvm.assume(i1 %63)
  %64 = tail call i32 @errcode(i32 noundef 16779816) #12
  %65 = tail call i32 (ptr, ...) @errmsg(ptr noundef nonnull @.str.9, i32 noundef %52, i32 noundef %50) #12
  tail call void @errfinish(ptr noundef nonnull @.str.1, i32 noundef 1320, ptr noundef nonnull @__func__.PageIndexTupleDeleteNoCompact) #12
  unreachable

66:                                               ; preds = %59
  %67 = add nuw nsw i64 %51, 7
  %68 = and i64 %67, 65528
  %69 = icmp samesign ult i16 %1, %37
  br i1 %69, label %70, label %71

70:                                               ; preds = %66
  store i32 0, ptr %48, align 4
  br label %74

71:                                               ; preds = %66
  %72 = add i16 %4, -4
  store i16 %72, ptr %3, align 4
  %73 = add nsw i32 %38, -1
  br label %74

74:                                               ; preds = %71, %70
  %.val7379 = phi i16 [ %4, %70 ], [ %72, %71 ]
  %.059 = phi i32 [ %38, %70 ], [ %73, %71 ]
  %75 = icmp samesign ugt i32 %52, %53
  br i1 %75, label %76, label %82

76:                                               ; preds = %74
  %77 = zext i16 %8 to i64
  %78 = getelementptr inbounds nuw i8, ptr %0, i64 %77
  %79 = getelementptr inbounds nuw i8, ptr %78, i64 %68
  %80 = sub nuw nsw i32 %52, %53
  %81 = zext nneg i32 %80 to i64
  tail call void @llvm.memmove.p0.p0.i64(ptr align 1 %79, ptr align 1 %78, i64 %81, i1 false)
  %.pre = load i16, ptr %7, align 2
  %.val73.pre = load i16, ptr %3, align 4
  br label %82

82:                                               ; preds = %76, %74
  %.val73 = phi i16 [ %.val73.pre, %76 ], [ %.val7379, %74 ]
  %83 = phi i16 [ %.pre, %76 ], [ %8, %74 ]
  %84 = trunc nuw i64 %68 to i16
  %85 = add i16 %83, %84
  store i16 %85, ptr %7, align 2
  %86 = icmp ult i16 %.val73, 25
  %.not6874 = icmp slt i32 %.059, 1
  %or.cond76 = select i1 %86, i1 true, i1 %.not6874
  br i1 %or.cond76, label %.loopexit, label %.lr.ph

.lr.ph:                                           ; preds = %82
  %87 = trunc nuw nsw i64 %68 to i32
  %88 = add nuw nsw i32 %.059, 1
  %wide.trip.count = zext nneg i32 %88 to i64
  br label %89

89:                                               ; preds = %.lr.ph, %99
  %indvars.iv = phi i64 [ 1, %.lr.ph ], [ %indvars.iv.next, %99 ]
  %90 = add nsw i64 %indvars.iv, -1
  %91 = getelementptr inbounds [0 x %struct.ItemIdData], ptr %45, i64 0, i64 %90
  %92 = load i32, ptr %91, align 4
  %.not69 = icmp ult i32 %92, 131072
  %93 = and i32 %92, 32767
  %.not70 = icmp samesign ugt i32 %93, %52
  %or.cond72 = select i1 %.not69, i1 true, i1 %.not70
  br i1 %or.cond72, label %99, label %94

94:                                               ; preds = %89
  %95 = add i32 %92, %87
  %96 = and i32 %95, 32767
  %97 = and i32 %92, -32768
  %98 = or disjoint i32 %96, %97
  store i32 %98, ptr %91, align 4
  br label %99

99:                                               ; preds = %94, %89
  %indvars.iv.next = add nuw nsw i64 %indvars.iv, 1
  %exitcond.not = icmp eq i64 %indvars.iv.next, %wide.trip.count
  br i1 %exitcond.not, label %.loopexit, label %89, !llvm.loop !24

.loopexit:                                        ; preds = %99, %82
  ret void
}